(i__main__
Quadtree
p0
(dp1
S'root'
p2
(i__main__
Area
p3
(dp4
S'y2'
p5
F1.0
sS'points_'
p6
(lp7
(F0.567603099626
F0.410160220857
tp8
a(F0.405568042222
F0.555583016695
tp9
a(F0.450289054963
F0.252870772505
tp10
a(F0.373657009068
F0.549501477427
tp11
a(F0.500192599714
F0.352420542886
tp12
a(F0.626796922
F0.422685113179
tp13
a(F0.527521290061
F0.483502904656
tp14
a(F0.407737520746
F0.570049935936
tp15
a(F0.578095278433
F0.6959689898
tp16
a(F0.271957975882
F0.450460115198
tp17
a(F0.56451369371
F0.491139311353
tp18
a(F0.532304354436
F0.486931064003
tp19
a(F0.553942716039
F0.51953331907
tp20
a(F0.627341495722
F0.396617894317
tp21
a(F0.454210189397
F0.570214499065
tp22
a(F0.327359895038
F0.582972137899
tp23
a(F0.422271372537
F0.560892624101
tp24
a(F0.443036148978
F0.434529240506
tp25
a(F0.644625936719
F0.542486338813
tp26
a(F0.447813648487
F0.575896033203
tp27
a(F0.534217713171
F0.636123087401
tp28
a(F0.348346109137
F0.312959224746
tp29
a(F0.484075186327
F0.289521849258
tp30
a(F0.588417643962
F0.387831556678
tp31
a(F0.613422176662
F0.665770829308
tp32
a(F0.60994411786
F0.399778040078
tp33
a(F0.425443751505
F0.402619561402
tp34
a(F0.504955932504
F0.610015349003
tp35
a(F0.402852203978
F0.382379275531
tp36
a(F0.387591801531
F0.452180343665
tp37
asS'x2'
p38
F1.0
sS'fixed'
p39
I00
sS'y1'
p40
F0.0
sS'aid'
p41
I0
sS'x1'
p42
F0.0
sS'children'
p43
(lp44
(i__main__
Area
p45
(dp46
g5
F0.5
sg6
(lp47
g10
ag17
ag25
ag29
ag30
ag34
ag36
ag37
asg38
F0.5
sg39
I00
sg40
F0.0
sg41
I1
sg42
F0.0
sg43
(lp48
(i__main__
Area
p49
(dp50
g5
F0.25
sg6
(lp51
sg38
F0.25
sg39
I01
sg40
F0.0
sg41
I5
sg42
F0.0
sg43
(lp52
NaNaNaNasba(i__main__
Area
p53
(dp54
g5
F0.5
sg6
(lp55
sg38
F0.25
sg39
I01
sg40
F0.25
sg41
I6
sg42
F0.0
sg43
(lp56
NaNaNaNasba(i__main__
Area
p57
(dp58
g5
F0.25
sg6
(lp59
sg38
F0.5
sg39
I01
sg40
F0.0
sg41
I7
sg42
F0.25
sg43
(lp60
NaNaNaNasba(i__main__
Area
p61
(dp62
g5
F0.5
sg6
(lp63
g10
ag17
ag25
ag29
ag30
ag34
ag36
ag37
asg38
F0.5
sg39
I00
sg40
F0.25
sg41
I8
sg42
F0.25
sg43
(lp64
(i__main__
Area
p65
(dp66
g5
F0.375
sg6
(lp67
g29
asg38
F0.375
sg39
I01
sg40
F0.25
sg41
I9
sg42
F0.25
sg43
(lp68
NaNaNaNasba(i__main__
Area
p69
(dp70
g5
F0.5
sg6
(lp71
g17
asg38
F0.375
sg39
I01
sg40
F0.375
sg41
I10
sg42
F0.25
sg43
(lp72
NaNaNaNasba(i__main__
Area
p73
(dp74
g5
F0.375
sg6
(lp75
g10
ag30
asg38
F0.5
sg39
I01
sg40
F0.25
sg41
I11
sg42
F0.375
sg43
(lp76
NaNaNaNasba(i__main__
Area
p77
(dp78
g5
F0.5
sg6
(lp79
g25
ag34
ag36
ag37
asg38
F0.5
sg39
I01
sg40
F0.375
sg41
I12
sg42
F0.375
sg43
(lp80
NaNaNaNasbasbasba(i__main__
Area
p81
(dp82
g5
F1.0
sg6
(lp83
g9
ag11
ag15
ag22
ag23
ag24
ag27
asg38
F0.5
sg39
I00
sg40
F0.5
sg41
I2
sg42
F0.0
sg43
(lp84
(i__main__
Area
p85
(dp86
g5
F0.75
sg6
(lp87
sg38
F0.25
sg39
I01
sg40
F0.5
sg41
I13
sg42
F0.0
sg43
(lp88
NaNaNaNasba(i__main__
Area
p89
(dp90
g5
F1.0
sg6
(lp91
sg38
F0.25
sg39
I01
sg40
F0.75
sg41
I14
sg42
F0.0
sg43
(lp92
NaNaNaNasba(i__main__
Area
p93
(dp94
g5
F0.75
sg6
(lp95
g9
ag11
ag15
ag22
ag23
ag24
ag27
asg38
F0.5
sg39
I00
sg40
F0.5
sg41
I15
sg42
F0.25
sg43
(lp96
(i__main__
Area
p97
(dp98
g5
F0.625
sg6
(lp99
g11
ag23
asg38
F0.375
sg39
I01
sg40
F0.5
sg41
I17
sg42
F0.25
sg43
(lp100
NaNaNaNasba(i__main__
Area
p101
(dp102
g5
F0.75
sg6
(lp103
sg38
F0.375
sg39
I01
sg40
F0.625
sg41
I18
sg42
F0.25
sg43
(lp104
NaNaNaNasba(i__main__
Area
p105
(dp106
g5
F0.625
sg6
(lp107
g9
ag15
ag22
ag24
ag27
asg38
F0.5
sg39
I01
sg40
F0.5
sg41
I19
sg42
F0.375
sg43
(lp108
NaNaNaNasba(i__main__
Area
p109
(dp110
g5
F0.75
sg6
(lp111
sg38
F0.5
sg39
I01
sg40
F0.625
sg41
I20
sg42
F0.375
sg43
(lp112
NaNaNaNasbasba(i__main__
Area
p113
(dp114
g5
F1.0
sg6
(lp115
sg38
F0.5
sg39
I01
sg40
F0.75
sg41
I16
sg42
F0.25
sg43
(lp116
NaNaNaNasbasba(i__main__
Area
p117
(dp118
g5
F0.5
sg6
(lp119
g8
ag12
ag13
ag14
ag18
ag19
ag21
ag31
ag33
asg38
F1.0
sg39
I00
sg40
F0.0
sg41
I3
sg42
F0.5
sg43
(lp120
(i__main__
Area
p121
(dp122
g5
F0.25
sg6
(lp123
sg38
F0.75
sg39
I01
sg40
F0.0
sg41
I21
sg42
F0.5
sg43
(lp124
NaNaNaNasba(i__main__
Area
p125
(dp126
g5
F0.5
sg6
(lp127
g8
ag12
ag13
ag14
ag18
ag19
ag21
ag31
ag33
asg38
F0.75
sg39
I00
sg40
F0.25
sg41
I22
sg42
F0.5
sg43
(lp128
(i__main__
Area
p129
(dp130
g5
F0.375
sg6
(lp131
g12
asg38
F0.625
sg39
I01
sg40
F0.25
sg41
I25
sg42
F0.5
sg43
(lp132
NaNaNaNasba(i__main__
Area
p133
(dp134
g5
F0.5
sg6
(lp135
g8
ag14
ag18
ag19
ag31
ag33
asg38
F0.625
sg39
I01
sg40
F0.375
sg41
I26
sg42
F0.5
sg43
(lp136
NaNaNaNasba(i__main__
Area
p137
(dp138
g5
F0.375
sg6
(lp139
sg38
F0.75
sg39
I01
sg40
F0.25
sg41
I27
sg42
F0.625
sg43
(lp140
NaNaNaNasba(i__main__
Area
p141
(dp142
g5
F0.5
sg6
(lp143
g13
ag21
asg38
F0.75
sg39
I01
sg40
F0.375
sg41
I28
sg42
F0.625
sg43
(lp144
NaNaNaNasbasba(i__main__
Area
p145
(dp146
g5
F0.25
sg6
(lp147
sg38
F1.0
sg39
I01
sg40
F0.0
sg41
I23
sg42
F0.75
sg43
(lp148
NaNaNaNasba(i__main__
Area
p149
(dp150
g5
F0.5
sg6
(lp151
sg38
F1.0
sg39
I01
sg40
F0.25
sg41
I24
sg42
F0.75
sg43
(lp152
NaNaNaNasbasba(i__main__
Area
p153
(dp154
g5
F1.0
sg6
(lp155
g16
ag20
ag26
ag28
ag32
ag35
asg38
F1.0
sg39
I00
sg40
F0.5
sg41
I4
sg42
F0.5
sg43
(lp156
(i__main__
Area
p157
(dp158
g5
F0.75
sg6
(lp159
g16
ag20
ag26
ag28
ag32
ag35
asg38
F0.75
sg39
I00
sg40
F0.5
sg41
I29
sg42
F0.5
sg43
(lp160
(i__main__
Area
p161
(dp162
g5
F0.625
sg6
(lp163
g20
ag35
asg38
F0.625
sg39
I01
sg40
F0.5
sg41
I33
sg42
F0.5
sg43
(lp164
NaNaNaNasba(i__main__
Area
p165
(dp166
g5
F0.75
sg6
(lp167
g16
ag28
ag32
asg38
F0.625
sg39
I01
sg40
F0.625
sg41
I34
sg42
F0.5
sg43
(lp168
NaNaNaNasba(i__main__
Area
p169
(dp170
g5
F0.625
sg6
(lp171
g26
asg38
F0.75
sg39
I01
sg40
F0.5
sg41
I35
sg42
F0.625
sg43
(lp172
NaNaNaNasba(i__main__
Area
p173
(dp174
g5
F0.75
sg6
(lp175
sg38
F0.75
sg39
I01
sg40
F0.625
sg41
I36
sg42
F0.625
sg43
(lp176
NaNaNaNasbasba(i__main__
Area
p177
(dp178
g5
F1.0
sg6
(lp179
sg38
F0.75
sg39
I01
sg40
F0.75
sg41
I30
sg42
F0.5
sg43
(lp180
NaNaNaNasba(i__main__
Area
p181
(dp182
g5
F0.75
sg6
(lp183
sg38
F1.0
sg39
I01
sg40
F0.5
sg41
I31
sg42
F0.75
sg43
(lp184
NaNaNaNasba(i__main__
Area
p185
(dp186
g5
F1.0
sg6
(lp187
sg38
F1.0
sg39
I01
sg40
F0.75
sg41
I32
sg42
F0.75
sg43
(lp188
NaNaNaNasbasbasbsS'leaves'
p189
(dp190
I5
g49
sI6
g53
sI7
g57
sI9
g65
sI10
g69
sI11
g73
sI12
g77
sI13
g85
sI14
g89
sI16
g113
sI17
g97
sI18
g101
sI19
g105
sI20
g109
sI21
g121
sI23
g145
sI24
g149
sI25
g129
sI26
g133
sI27
g137
sI28
g141
sI30
g177
sI31
g181
sI32
g185
sI33
g161
sI34
g165
sI35
g169
sI36
g173
ssS'data'
p191
(lp192
g8
ag9
ag10
ag11
ag12
ag13
ag14
ag15
ag16
ag17
ag18
ag19
ag20
ag21
ag22
ag23
ag24
ag25
ag26
ag27
ag28
ag29
ag30
ag31
ag32
ag33
ag34
ag35
ag36
ag37
asS'sequential_id'
p193
I37
sb.